; ModuleID = 'source-C-CXX/32/60.c'
source_filename = "source-C-CXX/32/60.c"
target datalayout = "e-m:e-p270:32:32-p271:32:32-p272:64:64-i64:64-f80:128-n8:16:32:64-S128"
target triple = "x86_64-pc-linux-gnu"

@.str = private unnamed_addr constant [3 x i8] c"%d\00", align 1
@.str.1 = private unnamed_addr constant [3 x i8] c"%s\00", align 1

; Function Attrs: nofree nounwind sspstrong uwtable
define dso_local i32 @main() local_unnamed_addr #0 {
  %1 = alloca i32, align 4
  %2 = alloca [256 x i8], align 16
  %3 = bitcast i32* %1 to i8*
  call void @llvm.lifetime.start.p0i8(i64 4, i8* nonnull %3) #5
  %4 = getelementptr inbounds [256 x i8], [256 x i8]* %2, i64 0, i64 0
  call void @llvm.lifetime.start.p0i8(i64 256, i8* nonnull %4) #5
  %5 = call i32 (i8*, ...) @__isoc99_scanf(i8* getelementptr inbounds ([3 x i8], [3 x i8]* @.str, i64 0, i64 0), i32* nonnull %1)
  %6 = load i32, i32* %1, align 4, !tbaa !5
  %7 = icmp sgt i32 %6, 0
  br i1 %7, label %8, label %49

8:                                                ; preds = %0, %44
  %9 = phi i32 [ %46, %44 ], [ 0, %0 ]
  %10 = call i32 (i8*, ...) @__isoc99_scanf(i8* getelementptr inbounds ([3 x i8], [3 x i8]* @.str.1, i64 0, i64 0), i8* nonnull %4)
  %11 = call i64 @strlen(i8* noundef nonnull %4) #6
  %12 = trunc i64 %11 to i32
  %13 = icmp sgt i32 %12, 0
  br i1 %13, label %14, label %44

14:                                               ; preds = %8
  %15 = and i64 %11, 4294967295
  br label %16

16:                                               ; preds = %14, %41
  %17 = phi i64 [ 0, %14 ], [ %42, %41 ]
  %18 = getelementptr inbounds [256 x i8], [256 x i8]* %2, i64 0, i64 %17
  %19 = load i8, i8* %18, align 1, !tbaa !9
  %20 = icmp eq i8 %19, 65
  br i1 %20, label %21, label %24

21:                                               ; preds = %16
  %22 = call i32 @putchar(i32 84)
  %23 = load i8, i8* %18, align 1, !tbaa !9
  br label %24

24:                                               ; preds = %21, %16
  %25 = phi i8 [ %23, %21 ], [ %19, %16 ]
  %26 = icmp eq i8 %25, 84
  br i1 %26, label %27, label %30

27:                                               ; preds = %24
  %28 = call i32 @putchar(i32 65)
  %29 = load i8, i8* %18, align 1, !tbaa !9
  br label %30

30:                                               ; preds = %27, %24
  %31 = phi i8 [ %29, %27 ], [ %25, %24 ]
  %32 = icmp eq i8 %31, 67
  br i1 %32, label %33, label %36

33:                                               ; preds = %30
  %34 = call i32 @putchar(i32 71)
  %35 = load i8, i8* %18, align 1, !tbaa !9
  br label %36

36:                                               ; preds = %33, %30
  %37 = phi i8 [ %35, %33 ], [ %31, %30 ]
  %38 = icmp eq i8 %37, 71
  br i1 %38, label %39, label %41

39:                                               ; preds = %36
  %40 = call i32 @putchar(i32 67)
  br label %41

41:                                               ; preds = %36, %39
  %42 = add nuw nsw i64 %17, 1
  %43 = icmp eq i64 %42, %15
  br i1 %43, label %44, label %16, !llvm.loop !10

44:                                               ; preds = %41, %8
  %45 = call i32 @putchar(i32 10)
  %46 = add nuw nsw i32 %9, 1
  %47 = load i32, i32* %1, align 4, !tbaa !5
  %48 = icmp slt i32 %46, %47
  br i1 %48, label %8, label %49, !llvm.loop !12

49:                                               ; preds = %44, %0
  call void @llvm.lifetime.end.p0i8(i64 256, i8* nonnull %4) #5
  call void @llvm.lifetime.end.p0i8(i64 4, i8* nonnull %3) #5
  ret i32 0
}

; Function Attrs: argmemonly mustprogress nofree nosync nounwind willreturn
declare void @llvm.lifetime.start.p0i8(i64 immarg, i8* nocapture) #1

; Function Attrs: nofree nounwind
declare noundef i32 @__isoc99_scanf(i8* nocapture noundef readonly, ...) local_unnamed_addr #2

; Function Attrs: argmemonly mustprogress nofree nounwind readonly willreturn
declare i64 @strlen(i8* nocapture) local_unnamed_addr #3

; Function Attrs: argmemonly mustprogress nofree nosync nounwind willreturn
declare void @llvm.lifetime.end.p0i8(i64 immarg, i8* nocapture) #1

; Function Attrs: nofree nounwind
declare noundef i32 @putchar(i32 noundef) local_unnamed_addr #4


!llvm.module.flags = !{!0, !1, !2, !3}
!llvm.ident = !{!4}

!0 = !{i32 1, !"wchar_size", i32 4}
!1 = !{i32 7, !"PIC Level", i32 2}
!2 = !{i32 7, !"PIE Level", i32 2}
!3 = !{i32 7, !"uwtable", i32 1}
!4 = !{!"clang version 13.0.0"}
!5 = !{!6, !6, i64 0}
!6 = !{!"int", !7, i64 0}
!7 = !{!"omnipotent char", !8, i64 0}
!8 = !{!"Simple C/C++ TBAA"}
!9 = !{!7, !7, i64 0}
!10 = distinct !{!10, !11}
!11 = !{!"llvm.loop.mustprogress"}
!12 = distinct !{!12, !11}
